target datalayout = "e-m:e-p270:32:32-p271:32:32-p272:64:64-i64:64-i128:128-f80:128-n8:16:32:64-S128"
target triple = "x86_64-pc-linux-gnu"

%struct.sysinfo = type { i64, [3 x i64], i64, i64, i64, i64, i64, i64, i16, i16, i64, i64, i32, [0 x i8] }

@.str.22 = private unnamed_addr constant [14 x i8] c"/proc/loadavg\00", align 1
@.str.23 = private unnamed_addr constant [12 x i8] c"%lf %lf %lf\00", align 1

; Function Attrs: nounwind uwtable
define dso_local void @uv_loadavg(ptr noundef %0) #0 {
  %2 = alloca ptr, align 8
  %3 = alloca %struct.sysinfo, align 8
  %4 = alloca [128 x i8], align 16
  %5 = alloca i32, align 4
  store ptr %0, ptr %2, align 8
  call void @llvm.lifetime.start.p0(i64 112, ptr %3) #12
  call void @llvm.lifetime.start.p0(i64 128, ptr %4) #12
  %6 = getelementptr inbounds [128 x i8], ptr %4, i64 0, i64 0
  %7 = call i32 @uv__slurp(ptr noundef @.str.22, ptr noundef %6, i64 noundef 128)
  %8 = icmp eq i32 0, %7
  br i1 %8, label %9, label %21

9:                                                ; preds = %1
  %10 = getelementptr inbounds [128 x i8], ptr %4, i64 0, i64 0
  %11 = load ptr, ptr %2, align 8
  %12 = getelementptr inbounds double, ptr %11, i64 0
  %13 = load ptr, ptr %2, align 8
  %14 = getelementptr inbounds double, ptr %13, i64 1
  %15 = load ptr, ptr %2, align 8
  %16 = getelementptr inbounds double, ptr %15, i64 2
  %17 = call i32 (ptr, ptr, ...) @sscanf(ptr noundef %10, ptr noundef @.str.23, ptr noundef %12, ptr noundef %14, ptr noundef %16) #12
  %18 = icmp eq i32 3, %17
  br i1 %18, label %19, label %20

19:                                               ; preds = %9
  store i32 1, ptr %5, align 4
  br label %47

20:                                               ; preds = %9
  br label %21

21:                                               ; preds = %20, %1
  %22 = call i32 @sysinfo(ptr noundef %3) #12
  %23 = icmp slt i32 %22, 0
  br i1 %23, label %24, label %25

24:                                               ; preds = %21
  store i32 1, ptr %5, align 4
  br label %47

25:                                               ; preds = %21
  %26 = getelementptr inbounds nuw %struct.sysinfo, ptr %3, i32 0, i32 1
  %27 = getelementptr inbounds [3 x i64], ptr %26, i64 0, i64 0
  %28 = load i64, ptr %27, align 8
  %29 = uitofp i64 %28 to double
  %30 = fdiv double %29, 6.553600e+04
  %31 = load ptr, ptr %2, align 8
  %32 = getelementptr inbounds double, ptr %31, i64 0
  store double %30, ptr %32, align 8
  %33 = getelementptr inbounds nuw %struct.sysinfo, ptr %3, i32 0, i32 1
  %34 = getelementptr inbounds [3 x i64], ptr %33, i64 0, i64 1
  %35 = load i64, ptr %34, align 8
  %36 = uitofp i64 %35 to double
  %37 = fdiv double %36, 6.553600e+04
  %38 = load ptr, ptr %2, align 8
  %39 = getelementptr inbounds double, ptr %38, i64 1
  store double %37, ptr %39, align 8
  %40 = getelementptr inbounds nuw %struct.sysinfo, ptr %3, i32 0, i32 1
  %41 = getelementptr inbounds [3 x i64], ptr %40, i64 0, i64 2
  %42 = load i64, ptr %41, align 8
  %43 = uitofp i64 %42 to double
  %44 = fdiv double %43, 6.553600e+04
  %45 = load ptr, ptr %2, align 8
  %46 = getelementptr inbounds double, ptr %45, i64 2
  store double %44, ptr %46, align 8
  store i32 0, ptr %5, align 4
  br label %47

47:                                               ; preds = %25, %24, %19
  call void @llvm.lifetime.end.p0(i64 128, ptr %4) #12
  call void @llvm.lifetime.end.p0(i64 112, ptr %3) #12
  %48 = load i32, ptr %5, align 4
  switch i32 %48, label %50 [
    i32 0, label %49
    i32 1, label %49
  ]

49:                                               ; preds = %47, %47
  ret void

50:                                               ; preds = %47
  unreachable
}