; Function Attrs: nounwind uwtable
define dso_local void @uv_loadavg(ptr noundef %0) local_unnamed_addr #0 {
  %2 = alloca %struct.sysinfo, align 8
  %3 = alloca [128 x i8], align 16
  call void @llvm.lifetime.start.p0(i64 112, ptr nonnull %2) #17
  call void @llvm.lifetime.start.p0(i64 128, ptr nonnull %3) #17
  %4 = call i32 @uv__slurp(ptr noundef nonnull @.str.22, ptr noundef nonnull %3, i64 noundef 128) #17
  %5 = icmp eq i32 %4, 0
  br i1 %5, label %6, label %11

6:                                                ; preds = %1
  %7 = getelementptr inbounds nuw i8, ptr %0, i64 8
  %8 = getelementptr inbounds nuw i8, ptr %0, i64 16
  %9 = call i32 (ptr, ptr, ...) @sscanf(ptr noundef nonnull %3, ptr noundef nonnull @.str.23, ptr noundef %0, ptr noundef nonnull %7, ptr noundef nonnull %8) #17
  %10 = icmp eq i32 %9, 3
  br i1 %10, label %29, label %11

11:                                               ; preds = %6, %1
  %12 = call i32 @sysinfo(ptr noundef nonnull %2) #17
  %13 = icmp slt i32 %12, 0
  br i1 %13, label %29, label %14

14:                                               ; preds = %11
  %15 = getelementptr inbounds nuw i8, ptr %2, i64 8
  %16 = load i64, ptr %15, align 8
  %17 = uitofp i64 %16 to double
  %18 = fmul double %17, 0x3EF0000000000000
  store double %18, ptr %0, align 8
  %19 = getelementptr inbounds nuw i8, ptr %2, i64 16
  %20 = load i64, ptr %19, align 8
  %21 = uitofp i64 %20 to double
  %22 = fmul double %21, 0x3EF0000000000000
  %23 = getelementptr inbounds nuw i8, ptr %0, i64 8
  store double %22, ptr %23, align 8
  %24 = getelementptr inbounds nuw i8, ptr %2, i64 24
  %25 = load i64, ptr %24, align 8
  %26 = uitofp i64 %25 to double
  %27 = fmul double %26, 0x3EF0000000000000
  %28 = getelementptr inbounds nuw i8, ptr %0, i64 16
  store double %27, ptr %28, align 8
  br label %29

29:                                               ; preds = %11, %6, %14
  call void @llvm.lifetime.end.p0(i64 128, ptr nonnull %3) #17
  call void @llvm.lifetime.end.p0(i64 112, ptr nonnull %2) #17
  ret void
}